target datalayout = "e-m:e-p270:32:32-p271:32:32-p272:64:64-i64:64-i128:128-f80:128-n8:16:32:64-S128"
target triple = "x86_64-pc-linux-gnu"

%struct.H5SL_t = type { i32, ptr, i32, i64, ptr, ptr }
%struct.H5SL_node_t = type { ptr, ptr, i64, i64, i32, ptr, ptr }

@H5SL_init_g = global i8 0, align 1
@H5_libterm_g = external global i8, align 1

; Function Attrs: nounwind uwtable
define i32 @H5SL_iterate(ptr noundef %0, ptr noundef %1, ptr noundef %2) #0 {
  %4 = alloca ptr, align 8
  %5 = alloca ptr, align 8
  %6 = alloca ptr, align 8
  %7 = alloca ptr, align 8
  %8 = alloca ptr, align 8
  %9 = alloca i32, align 4
  store ptr %0, ptr %4, align 8, !tbaa !21
  store ptr %1, ptr %5, align 8, !tbaa !20
  store ptr %2, ptr %6, align 8, !tbaa !20
  call void @llvm.lifetime.start.p0(i64 8, ptr %7) #8
  call void @llvm.lifetime.start.p0(i64 8, ptr %8) #8
  call void @llvm.lifetime.start.p0(i64 4, ptr %9) #8
  store i32 0, ptr %9, align 4, !tbaa !16
  %10 = load i8, ptr @H5SL_init_g, align 1, !tbaa !3, !range !7, !noundef !8
  %11 = trunc i8 %10 to i1
  br i1 %11, label %16, label %12

12:                                               ; preds = %3
  %13 = load i8, ptr @H5_libterm_g, align 1, !tbaa !3, !range !7, !noundef !8
  %14 = trunc i8 %13 to i1
  %15 = xor i1 %14, true
  br label %16

16:                                               ; preds = %12, %3
  %17 = phi i1 [ true, %3 ], [ %15, %12 ]
  %18 = xor i1 %17, true
  %19 = xor i1 %18, true
  %20 = zext i1 %19 to i32
  %21 = sext i32 %20 to i64
  %22 = call i64 @llvm.expect.i64(i64 %21, i64 1)
  %23 = icmp ne i64 %22, 0
  br i1 %23, label %24, label %55

24:                                               ; preds = %16
  %25 = load ptr, ptr %4, align 8, !tbaa !21
  %26 = getelementptr inbounds nuw %struct.H5SL_t, ptr %25, i32 0, i32 4
  %27 = load ptr, ptr %26, align 8, !tbaa !34
  %28 = getelementptr inbounds nuw %struct.H5SL_node_t, ptr %27, i32 0, i32 5
  %29 = load ptr, ptr %28, align 8, !tbaa !30
  %30 = getelementptr inbounds ptr, ptr %29, i64 0
  %31 = load ptr, ptr %30, align 8, !tbaa !29
  store ptr %31, ptr %7, align 8, !tbaa !29
  br label %32

32:                                               ; preds = %52, %24
  %33 = load ptr, ptr %7, align 8, !tbaa !29
  %34 = icmp ne ptr %33, null
  br i1 %34, label %35, label %54

35:                                               ; preds = %32
  %36 = load ptr, ptr %7, align 8, !tbaa !29
  %37 = getelementptr inbounds nuw %struct.H5SL_node_t, ptr %36, i32 0, i32 5
  %38 = load ptr, ptr %37, align 8, !tbaa !30
  %39 = getelementptr inbounds ptr, ptr %38, i64 0
  %40 = load ptr, ptr %39, align 8, !tbaa !29
  store ptr %40, ptr %8, align 8, !tbaa !29
  %41 = load ptr, ptr %5, align 8, !tbaa !20
  %42 = load ptr, ptr %7, align 8, !tbaa !29
  %43 = getelementptr inbounds nuw %struct.H5SL_node_t, ptr %42, i32 0, i32 1
  %44 = load ptr, ptr %43, align 8, !tbaa !37
  %45 = load ptr, ptr %7, align 8, !tbaa !29
  %46 = getelementptr inbounds nuw %struct.H5SL_node_t, ptr %45, i32 0, i32 0
  %47 = load ptr, ptr %46, align 8, !tbaa !36
  %48 = load ptr, ptr %6, align 8, !tbaa !20
  %49 = call i32 %41(ptr noundef %44, ptr noundef %47, ptr noundef %48)
  store i32 %49, ptr %9, align 4, !tbaa !16
  %50 = icmp ne i32 %49, 0
  br i1 %50, label %51, label %52

51:                                               ; preds = %35
  br label %54

52:                                               ; preds = %35
  %53 = load ptr, ptr %8, align 8, !tbaa !29
  store ptr %53, ptr %7, align 8, !tbaa !29
  br label %32, !llvm.loop !190

54:                                               ; preds = %51, %32
  br label %55

55:                                               ; preds = %54, %16
  %56 = load i32, ptr %9, align 4, !tbaa !16
  call void @llvm.lifetime.end.p0(i64 4, ptr %9) #8
  call void @llvm.lifetime.end.p0(i64 8, ptr %8) #8
  call void @llvm.lifetime.end.p0(i64 8, ptr %7) #8
  ret i32 %56
}