; Function Attrs: nounwind uwtable
define i32 @H5SL_iterate(ptr noundef readonly captures(none) %0, ptr noundef readonly captures(none) %1, ptr noundef %2) local_unnamed_addr #0 {
  %4 = load i8, ptr @H5SL_init_g, align 1, !tbaa !3, !range !7, !noundef !8
  %5 = trunc nuw i8 %4 to i1
  %6 = load i8, ptr @H5_libterm_g, align 1, !range !7
  %7 = trunc nuw i8 %6 to i1
  %8 = xor i1 %7, true
  %9 = select i1 %5, i1 true, i1 %8
  br i1 %9, label %10, label %.loopexit, !prof !9

10:                                               ; preds = %3
  %11 = getelementptr inbounds nuw i8, ptr %0, i64 32
  %12 = load ptr, ptr %11, align 8, !tbaa !32
  %13 = getelementptr inbounds nuw i8, ptr %12, i64 40
  %14 = load ptr, ptr %13, align 8, !tbaa !27
  %15 = load ptr, ptr %14, align 8, !tbaa !30
  br label %16

16:                                               ; preds = %17, %10
  %.08 = phi ptr [ %15, %10 ], [ %20, %17 ]
  %.not = icmp eq ptr %.08, null
  br i1 %.not, label %.loopexit, label %17

17:                                               ; preds = %16
  %18 = getelementptr inbounds nuw i8, ptr %.08, i64 40
  %19 = load ptr, ptr %18, align 8, !tbaa !27
  %20 = load ptr, ptr %19, align 8, !tbaa !30
  %21 = getelementptr inbounds nuw i8, ptr %.08, i64 8
  %22 = load ptr, ptr %21, align 8, !tbaa !35
  %23 = load ptr, ptr %.08, align 8, !tbaa !34
  %24 = tail call i32 %1(ptr noundef %22, ptr noundef %23, ptr noundef %2) #9
  %.not11 = icmp eq i32 %24, 0
  br i1 %.not11, label %16, label %.loopexit, !llvm.loop !188

.loopexit:                                        ; preds = %16, %17, %3
  %.0 = phi i32 [ 0, %3 ], [ 0, %16 ], [ %24, %17 ]
  ret i32 %.0
}